(dp0
S'sc'
p1
(lp2
F0.51313039
aF0.56363962
aF0.69657189
aF0.66348339
aF0.69589526
aF0.74770862
aF0.76107895
aF0.75063639
aF0.804086
aF0.79207376
aF0.81229009
aF0.80289747
aF0.81413173
aF0.83375517
aF0.81645076
aF0.79154349
aF0.83728922
aF0.83518132
aF0.86803339
aF0.8245503
aF0.86152702
aF0.80361005
aF0.85642731
aF0.84146025
aF0.8552091
aF0.89888131
aF0.84120936
aF0.83400941
aF0.83250845
aF0.89181736
aF0.84865735
aF0.90037965
aF0.87263081
aF0.8690168
aF0.85266249
aF0.87863341
aF0.81887567
aF0.88610927
aF0.8594575
aF0.86267379
aF0.86003341
aF0.85430758
aF0.87911334
aF0.83987937
aF0.85562781
aF0.87755042
aF0.91201146
aF0.87694587
aF0.95335235
aF0.85246418
aF0.88235189
aF0.88690572
aF0.87004386
aF0.85621256
aF0.89483301
aF0.89055875
aF0.88495276
aF0.90480441
aF0.86376515
aF0.85095247
aF0.90987195
aF0.89904564
aF0.89256574
aF0.86362864
aF0.88806567
aF0.89320426
aF0.90088906
aF0.88133968
aF0.87070016
aF0.89402478
aF0.88649538
aF0.90985337
aF0.87789322
aF0.88013487
aF0.8812577
aF0.90095213
aF0.89262932
aF0.91930989
aF0.89606137
aF0.91941052
aF0.90384872
aF0.88658442
aF0.93334751
aF0.85947362
aF0.87628993
aF0.91952548
aF0.90298989
aF0.87650299
aF0.89273843
aF0.90472426
aF0.87841459
aF0.89746456
aF0.86006938
aF0.891916
aF0.93285123
aF0.88550645
aF0.92880152
aF0.91790102
aF0.89358212
asS'ac'
p3
(lp4
F0.68181418
aF0.74685547
aF0.82212164
aF0.85103249
aF0.8684502
aF0.88923164
aF0.88638013
aF0.89490084
aF0.90740856
aF0.90554182
aF0.9144105
aF0.91196707
aF0.92446356
aF0.92004163
aF0.92420899
aF0.92608882
aF0.93240671
aF0.92959559
aF0.93507802
aF0.94270936
aF0.93184471
aF0.93233127
aF0.93302536
aF0.94563513
aF0.93826097
aF0.94632184
aF0.94882639
aF0.94898535
aF0.9501762
aF0.93746547
aF0.95627024
aF0.95135377
aF0.94953625
aF0.95500341
aF0.95744651
aF0.95072798
aF0.95475371
aF0.95463156
aF0.94808895
aF0.95289804
aF0.948762
aF0.96114097
aF0.95805362
aF0.95463317
aF0.95925911
aF0.96138086
aF0.95539612
aF0.95873836
aF0.96010985
aF0.96660739
aF0.96800761
aF0.96712485
aF0.95780114
aF0.96376015
aF0.97026092
aF0.96477069
aF0.96317672
aF0.96145326
aF0.96721329
aF0.97113493
aF0.95847688
aF0.96174965
aF0.96253994
aF0.97283157
aF0.97224148
aF0.95838677
aF0.9587761
aF0.969258
aF0.96306084
aF0.96881959
aF0.9634399
aF0.97301965
aF0.96970225
aF0.96672064
aF0.96608505
aF0.96485468
aF0.97131343
aF0.97338629
aF0.96228728
aF0.97092046
aF0.96976228
aF0.97215381
aF0.98005782
aF0.97154155
aF0.97582959
aF0.97377265
aF0.96287257
aF0.97301487
aF0.97762239
aF0.96755608
aF0.96463731
aF0.98109962
aF0.96984356
aF0.97673075
aF0.9756296
aF0.97319159
aF0.97884003
aF0.97353014
aF0.96660705
asS'r'
p5
(lp6
F0.6824885100746444
aF0.7238876194799652
aF0.7532083897924793
aF0.7334772157373461
aF0.7389418920640545
aF0.7286827236694817
aF0.7305587319396767
aF0.7426535796094277
aF0.746655643896537
aF0.7487581185639981
aF0.7590343607482848
aF0.7764070648124269
aF0.7841603791426859
aF0.7768632796289998
aF0.788885415919982
aF0.7501636412630619
aF0.7489067842912681
aF0.7844588246725932
aF0.7921522013219291
aF0.7760773043305008
aF0.747440346680104
aF0.7556928692763994
aF0.7709560788881779
aF0.7706559433066285
aF0.780058552360004
aF0.7432647088643194
aF0.7483720444956126
aF0.7969889835196617
aF0.799390615199595
aF0.7739264218315728
aF0.7542214109875124
aF0.798385947701806
aF0.7827979593999471
aF0.781286632421082
aF0.7860837847667406
aF0.766449872109929
aF0.7703581017421508
aF0.7579878841238714
aF0.799503038656843
aF0.7554214098016844
aF0.7728545296552951
aF0.807524947381177
aF0.7553062986871435
aF0.7474353144954788
aF0.7805871538149721
aF0.7910825987471696
aF0.7666275935500648
aF0.7212993654097424
aF0.7727353148768847
aF0.7741866877011956
aF0.7825318356692904
aF0.7641305144070576
aF0.7919613655688903
aF0.7961245302441732
aF0.7968248564536863
aF0.7876615423108818
aF0.7594696758084327
aF0.7626314616228074
aF0.7465924684886754
aF0.7492616488310923
aF0.7914954598680884
aF0.8140295853599462
aF0.7870800408037565
aF0.7878742701032416
aF0.8058763693627307
aF0.7405549749771014
aF0.7775012555641153
aF0.7696442798158996
aF0.7665928727455132
aF0.7611345028008187
aF0.7769228451076898
aF0.7532243200053903
aF0.7730675844115744
aF0.7534850611366591
aF0.7979127445326223
aF0.7902400018635333
aF0.7693406463427159
aF0.7788299783345055
aF0.8042093759260488
aF0.7700311962598786
aF0.7847034577839241
aF0.7695367733448231
aF0.7547083604196583
aF0.7852624968425188
aF0.807590570554594
aF0.7616813444591198
aF0.7631716242074956
aF0.7842323173951182
aF0.7594942610947858
aF0.7925649614306202
aF0.7592446252126727
aF0.778546613493659
aF0.7914464921290844
aF0.7787816344577297
aF0.7936518694840727
aF0.7909277618839983
aF0.8175588032882979
aF0.7565431540593999
aF0.7878782979282256
as.